; ModuleID = '8/565.c'
source_filename = "8/565.c"
target datalayout = "e-m:e-p270:32:32-p271:32:32-p272:64:64-i64:64-f80:128-n8:16:32:64-S128"
target triple = "x86_64-pc-linux-gnu"

@.str = private unnamed_addr constant [4 x i8] c"%d \00", align 1
@.str.1 = private unnamed_addr constant [3 x i8] c"%d\00", align 1
@.str.2 = private unnamed_addr constant [5 x i8] c"%d%d\00", align 1

; Function Attrs: noinline nounwind uwtable
define dso_local void @order(i32* %0, i32 %1) #0 {
  %3 = alloca i32*, align 8
  %4 = alloca i32, align 4
  %5 = alloca i32, align 4
  %6 = alloca i32, align 4
  %7 = alloca i32, align 4
  store i32* %0, i32** %3, align 8
  store i32 %1, i32* %4, align 4
  store i32 0, i32* %5, align 4
  store i32 0, i32* %6, align 4
  store i32 0, i32* %5, align 4
  br label %8

8:                                                ; preds = %60, %2
  %9 = load i32, i32* %5, align 4
  %10 = load i32, i32* %4, align 4
  %11 = icmp slt i32 %9, %10
  br i1 %11, label %12, label %63

12:                                               ; preds = %8
  store i32 0, i32* %6, align 4
  br label %13

13:                                               ; preds = %56, %12
  %14 = load i32, i32* %6, align 4
  %15 = load i32, i32* %4, align 4
  %16 = load i32, i32* %5, align 4
  %17 = sub nsw i32 %15, %16
  %18 = sub nsw i32 %17, 1
  %19 = icmp slt i32 %14, %18
  br i1 %19, label %20, label %59

20:                                               ; preds = %13
  %21 = load i32*, i32** %3, align 8
  %22 = load i32, i32* %6, align 4
  %23 = sext i32 %22 to i64
  %24 = getelementptr inbounds i32, i32* %21, i64 %23
  %25 = load i32, i32* %24, align 4
  %26 = load i32*, i32** %3, align 8
  %27 = load i32, i32* %6, align 4
  %28 = add nsw i32 %27, 1
  %29 = sext i32 %28 to i64
  %30 = getelementptr inbounds i32, i32* %26, i64 %29
  %31 = load i32, i32* %30, align 4
  %32 = icmp sgt i32 %25, %31
  br i1 %32, label %33, label %55

33:                                               ; preds = %20
  %34 = load i32*, i32** %3, align 8
  %35 = load i32, i32* %6, align 4
  %36 = sext i32 %35 to i64
  %37 = getelementptr inbounds i32, i32* %34, i64 %36
  %38 = load i32, i32* %37, align 4
  store i32 %38, i32* %7, align 4
  %39 = load i32*, i32** %3, align 8
  %40 = load i32, i32* %6, align 4
  %41 = add nsw i32 %40, 1
  %42 = sext i32 %41 to i64
  %43 = getelementptr inbounds i32, i32* %39, i64 %42
  %44 = load i32, i32* %43, align 4
  %45 = load i32*, i32** %3, align 8
  %46 = load i32, i32* %6, align 4
  %47 = sext i32 %46 to i64
  %48 = getelementptr inbounds i32, i32* %45, i64 %47
  store i32 %44, i32* %48, align 4
  %49 = load i32, i32* %7, align 4
  %50 = load i32*, i32** %3, align 8
  %51 = load i32, i32* %6, align 4
  %52 = add nsw i32 %51, 1
  %53 = sext i32 %52 to i64
  %54 = getelementptr inbounds i32, i32* %50, i64 %53
  store i32 %49, i32* %54, align 4
  br label %55

55:                                               ; preds = %33, %20
  br label %56

56:                                               ; preds = %55
  %57 = load i32, i32* %6, align 4
  %58 = add nsw i32 %57, 1
  store i32 %58, i32* %6, align 4
  br label %13

59:                                               ; preds = %13
  br label %60

60:                                               ; preds = %59
  %61 = load i32, i32* %5, align 4
  %62 = add nsw i32 %61, 1
  store i32 %62, i32* %5, align 4
  br label %8

63:                                               ; preds = %8
  ret void
}

; Function Attrs: noinline nounwind uwtable
define dso_local void @print(i32* %0, i32 %1, i32* %2, i32 %3) #0 {
  %5 = alloca i32*, align 8
  %6 = alloca i32, align 4
  %7 = alloca i32*, align 8
  %8 = alloca i32, align 4
  %9 = alloca i32, align 4
  %10 = alloca i32, align 4
  store i32* %0, i32** %5, align 8
  store i32 %1, i32* %6, align 4
  store i32* %2, i32** %7, align 8
  store i32 %3, i32* %8, align 4
  store i32 0, i32* %9, align 4
  store i32 0, i32* %10, align 4
  br label %11

11:                                               ; preds = %15, %4
  %12 = load i32, i32* %9, align 4
  %13 = load i32, i32* %6, align 4
  %14 = icmp slt i32 %12, %13
  br i1 %14, label %15, label %24

15:                                               ; preds = %11
  %16 = load i32*, i32** %5, align 8
  %17 = load i32, i32* %9, align 4
  %18 = sext i32 %17 to i64
  %19 = getelementptr inbounds i32, i32* %16, i64 %18
  %20 = load i32, i32* %19, align 4
  %21 = call i32 (i8*, ...) @printf(i8* getelementptr inbounds ([4 x i8], [4 x i8]* @.str, i64 0, i64 0), i32 %20)
  %22 = load i32, i32* %9, align 4
  %23 = add nsw i32 %22, 1
  store i32 %23, i32* %9, align 4
  br label %11

24:                                               ; preds = %11
  br label %25

25:                                               ; preds = %30, %24
  %26 = load i32, i32* %10, align 4
  %27 = load i32, i32* %8, align 4
  %28 = sub nsw i32 %27, 1
  %29 = icmp slt i32 %26, %28
  br i1 %29, label %30, label %39

30:                                               ; preds = %25
  %31 = load i32*, i32** %7, align 8
  %32 = load i32, i32* %10, align 4
  %33 = sext i32 %32 to i64
  %34 = getelementptr inbounds i32, i32* %31, i64 %33
  %35 = load i32, i32* %34, align 4
  %36 = call i32 (i8*, ...) @printf(i8* getelementptr inbounds ([4 x i8], [4 x i8]* @.str, i64 0, i64 0), i32 %35)
  %37 = load i32, i32* %10, align 4
  %38 = add nsw i32 %37, 1
  store i32 %38, i32* %10, align 4
  br label %25

39:                                               ; preds = %25
  %40 = load i32*, i32** %7, align 8
  %41 = load i32, i32* %8, align 4
  %42 = sub nsw i32 %41, 1
  %43 = sext i32 %42 to i64
  %44 = getelementptr inbounds i32, i32* %40, i64 %43
  %45 = load i32, i32* %44, align 4
  %46 = call i32 (i8*, ...) @printf(i8* getelementptr inbounds ([3 x i8], [3 x i8]* @.str.1, i64 0, i64 0), i32 %45)
  ret void
}

declare dso_local i32 @printf(i8*, ...) #1

; Function Attrs: noinline nounwind uwtable
define dso_local void @main() #0 {
  %1 = alloca [20 x i32], align 16
  %2 = alloca [20 x i32], align 16
  %3 = alloca i32, align 4
  %4 = alloca i32, align 4
  %5 = alloca i32, align 4
  %6 = alloca i32, align 4
  store i32 0, i32* %5, align 4
  store i32 0, i32* %6, align 4
  %7 = call i32 (i8*, ...) @__isoc99_scanf(i8* getelementptr inbounds ([5 x i8], [5 x i8]* @.str.2, i64 0, i64 0), i32* %3, i32* %4)
  br label %8

8:                                                ; preds = %12, %0
  %9 = load i32, i32* %5, align 4
  %10 = load i32, i32* %3, align 4
  %11 = icmp slt i32 %9, %10
  br i1 %11, label %12, label %19

12:                                               ; preds = %8
  %13 = load i32, i32* %5, align 4
  %14 = sext i32 %13 to i64
  %15 = getelementptr inbounds [20 x i32], [20 x i32]* %1, i64 0, i64 %14
  %16 = call i32 (i8*, ...) @__isoc99_scanf(i8* getelementptr inbounds ([3 x i8], [3 x i8]* @.str.1, i64 0, i64 0), i32* %15)
  %17 = load i32, i32* %5, align 4
  %18 = add nsw i32 %17, 1
  store i32 %18, i32* %5, align 4
  br label %8

19:                                               ; preds = %8
  br label %20

20:                                               ; preds = %24, %19
  %21 = load i32, i32* %6, align 4
  %22 = load i32, i32* %4, align 4
  %23 = icmp slt i32 %21, %22
  br i1 %23, label %24, label %31

24:                                               ; preds = %20
  %25 = load i32, i32* %6, align 4
  %26 = sext i32 %25 to i64
  %27 = getelementptr inbounds [20 x i32], [20 x i32]* %2, i64 0, i64 %26
  %28 = call i32 (i8*, ...) @__isoc99_scanf(i8* getelementptr inbounds ([3 x i8], [3 x i8]* @.str.1, i64 0, i64 0), i32* %27)
  %29 = load i32, i32* %6, align 4
  %30 = add nsw i32 %29, 1
  store i32 %30, i32* %6, align 4
  br label %20

31:                                               ; preds = %20
  %32 = getelementptr inbounds [20 x i32], [20 x i32]* %1, i64 0, i64 0
  %33 = load i32, i32* %3, align 4
  call void @order(i32* %32, i32 %33)
  %34 = getelementptr inbounds [20 x i32], [20 x i32]* %2, i64 0, i64 0
  %35 = load i32, i32* %4, align 4
  call void @order(i32* %34, i32 %35)
  %36 = getelementptr inbounds [20 x i32], [20 x i32]* %1, i64 0, i64 0
  %37 = load i32, i32* %3, align 4
  %38 = getelementptr inbounds [20 x i32], [20 x i32]* %2, i64 0, i64 0
  %39 = load i32, i32* %4, align 4
  call void @print(i32* %36, i32 %37, i32* %38, i32 %39)
  ret void
}

declare dso_local i32 @__isoc99_scanf(i8*, ...) #1


!llvm.module.flags = !{!0}
!llvm.ident = !{!1}

!0 = !{i32 1, !"wchar_size", i32 4}
!1 = !{!"clang version 10.0.0-4ubuntu1 "}
